Certificate:
    Data:
        Version: 3 (0x2)
        Serial Number: 2 (0x2)
    Signature Algorithm: sha256WithRSAEncryption
        Issuer: C=NZ, L=Wellington, O=MyCA, OU=IT, CN=certs.myca.com
        Validity
            Not Before: Apr 23 22:30:45 2018 GMT
            Not After : Apr 23 22:30:45 2019 GMT
        Subject: C=NZ, L=Wellington, O=My Client, OU=IT, CN=my.client.com
        Subject Public Key Info:
            Public Key Algorithm: rsaEncryption
                Public-Key: (1024 bit)
                Modulus:
                    00:b7:7d:48:12:03:52:5e:4c:73:64:f5:a5:0e:ea:
                    2e:be:79:d5:04:2e:07:f3:84:9f:ac:85:7e:0d:05:
                    fc:29:29:2e:6f:c9:21:28:00:f8:2f:1d:3e:85:ff:
                    3b:fb:eb:21:9f:3a:45:04:a1:cc:bb:bd:1b:aa:96:
                    a7:cb:11:dc:c1:f7:dc:74:0c:e3:da:8f:85:68:f7:
                    fc:ed:7e:69:20:fd:f6:42:21:68:b7:68:9b:0a:90:
                    11:b1:b5:1c:dc:c2:5c:0d:dd:80:ab:f1:91:85:2b:
                    b0:1b:cc:1b:07:0f:84:4a:d0:d6:a0:85:50:8a:34:
                    24:b7:bb:b2:ea:66:3a:a2:af
                Exponent: 65537 (0x10001)
        X509v3 extensions:
            X509v3 Basic Constraints: 
                CA:FALSE
            Netscape Comment: 
                OpenSSL Generated Certificate
            X509v3 Subject Key Identifier: 
                09:66:82:D8:03:B0:38:FF:8B:66:A1:3A:00:2A:C2:4C:39:86:54:42
            X509v3 Authority Key Identifier: 
                keyid:A9:18:E1:31:73:6C:3F:B7:2C:78:79:0B:E1:80:05:30:97:C3:26:0D

    Signature Algorithm: sha256WithRSAEncryption
         0c:9f:41:d5:5c:aa:5b:32:2e:e2:3e:c6:9a:2a:df:da:0e:09:
         c8:67:5c:56:e7:3c:a7:dc:2f:9f:1f:8c:8e:04:11:d2:13:0f:
         78:d6:1d:18:c3:de:b3:49:80:67:9a:93:83:5f:11:f1:02:ee:
         55:76:f5:95:48:79:87:40:a0:39:41:ac:0d:53:50:7b:0d:81:
         7d:09:e7:77:19:97:cf:fc:a3:7c:4d:7d:7a:dd:cc:17:00:57:
         77:af:92:6c:ce:c8:80:b4:fe:f7:54:0c:be:4d:90:c7:e0:f6:
         1d:b7:02:6f:7c:d5:1e:26:01:d6:8c:1f:0a:74:b1:98:66:77:
         15:e6:71:c6:7b:d0:49:1c:b2:a1:04:c9:2a:12:48:60:d2:0d:
         0c:7d:ad:75:b6:df:a4:12:e1:87:6c:99:33:0d:3c:e2:df:c0:
         06:bc:e4:dd:5f:1b:d4:85:86:c2:6b:54:ff:dd:0e:d6:5c:92:
         31:b4:e5:de:9f:40:4b:ab:a1:37:50:6d:93:83:75:a7:e3:1a:
         07:20:b1:fb:55:d8:74:a5:10:d7:ae:30:9c:e5:00:db:c4:95:
         a0:f7:40:aa:cc:ee:0d:c0:b5:0b:90:0e:08:bc:9b:b6:3e:4a:
         17:30:bd:b7:3f:92:ad:89:6b:21:7d:ba:70:91:28:66:d3:c1:
         9b:6b:dc:9a
-----BEGIN CERTIFICATE-----
MIIDJDCCAgygAwIBAgIBAjANBgkqhkiG9w0BAQsFADBXMQswCQYDVQQGEwJOWjET
MBEGA1UEBwwKV2VsbGluZ3RvbjENMAsGA1UECgwETXlDQTELMAkGA1UECwwCSVQx
FzAVBgNVBAMMDmNlcnRzLm15Y2EuY29tMB4XDTE4MDQyMzIyMzA0NVoXDTE5MDQy
MzIyMzA0NVowWzELMAkGA1UEBhMCTloxEzARBgNVBAcMCldlbGxpbmd0b24xEjAQ
BgNVBAoMCU15IENsaWVudDELMAkGA1UECwwCSVQxFjAUBgNVBAMMDW15LmNsaWVu
dC5jb20wgZ8wDQYJKoZIhvcNAQEBBQADgY0AMIGJAoGBALd9SBIDUl5Mc2T1pQ7q
Lr551QQuB/OEn6yFfg0F/CkpLm/JISgA+C8dPoX/O/vrIZ86RQShzLu9G6qWp8sR
3MH33HQM49qPhWj3/O1+aSD99kIhaLdomwqQEbG1HNzCXA3dgKvxkYUrsBvMGwcP
hErQ1qCFUIo0JLe7supmOqKvAgMBAAGjezB5MAkGA1UdEwQCMAAwLAYJYIZIAYb4
QgENBB8WHU9wZW5TU0wgR2VuZXJhdGVkIENlcnRpZmljYXRlMB0GA1UdDgQWBBQJ
ZoLYA7A4/4tmoToAKsJMOYZUQjAfBgNVHSMEGDAWgBSpGOExc2w/tyx4eQvhgAUw
l8MmDTANBgkqhkiG9w0BAQsFAAOCAQEADJ9B1VyqWzIu4j7Gmirf2g4JyGdcVuc8
p9wvnx+MjgQR0hMPeNYdGMPes0mAZ5qTg18R8QLuVXb1lUh5h0CgOUGsDVNQew2B
fQnndxmXz/yjfE19et3MFwBXd6+SbM7IgLT+91QMvk2Qx+D2HbcCb3zVHiYB1owf
CnSxmGZ3FeZxxnvQSRyyoQTJKhJIYNINDH2tdbbfpBLhh2yZMw084t/ABrzk3V8b
1IWGwmtU/90O1lySMbTl3p9AS6uhN1Btk4N1p+MaByCx+1XYdKUQ164wnOUA28SV
oPdAqszuDcC1C5AOCLybtj5KFzC9tz+SrYlrIX26cJEoZtPBm2vcmg==
-----END CERTIFICATE-----
